; Function Attrs: mustprogress nounwind uwtable
define hidden void @_ZN14XPageAllocator19check_out_of_memoryEv(ptr noundef nonnull align 8 dereferenceable(609) %0) local_unnamed_addr #1 align 2 {
  %2 = tail call i32 @pthread_mutex_lock(ptr noundef nonnull %0) #14
  %3 = getelementptr inbounds i8, ptr %0, i64 464
  %4 = getelementptr inbounds i8, ptr %0, i64 480
  %5 = load i64, ptr %4, align 8
  %6 = icmp eq i64 %5, 0
  %7 = load ptr, ptr %3, align 8
  %8 = ptrtoint ptr %7 to i64
  %9 = add i64 %8, -64
  %.not1012 = icmp eq i64 %9, 0
  %.not10 = select i1 %6, i1 true, i1 %.not1012
  br i1 %.not10, label %_ZN7XLockerI5XLockED2Ev.exit, label %.lr.ph

.lr.ph:                                           ; preds = %1
  %10 = getelementptr inbounds i8, ptr %0, i64 504
  %11 = getelementptr inbounds i8, ptr %0, i64 512
  br label %12

12:                                               ; preds = %.lr.ph, %select.unfold
  %.011.in = phi i64 [ %9, %.lr.ph ], [ %41, %select.unfold ]
  %.011 = inttoptr i64 %.011.in to ptr
  %13 = getelementptr inbounds i8, ptr %.011, i64 20
  %14 = load i32, ptr %13, align 4
  %15 = load i32, ptr @XGlobalSeqNum, align 4
  %16 = icmp eq i32 %14, %15
  br i1 %16, label %17, label %select.unfold

17:                                               ; preds = %12
  %18 = getelementptr inbounds i8, ptr %.011, i64 80
  %19 = getelementptr inbounds i8, ptr %.011, i64 112
  store i32 2, ptr %19, align 8
  tail call void @_ZN14PosixSemaphore6signalEj(ptr noundef nonnull align 8 dereferenceable(32) %18, i32 noundef 1) #14
  br label %_ZN7XLockerI5XLockED2Ev.exit

select.unfold:                                    ; preds = %12
  %20 = getelementptr inbounds i8, ptr %.011, i64 64
  %21 = load ptr, ptr %20, align 8
  %22 = getelementptr inbounds i8, ptr %.011, i64 72
  %23 = load ptr, ptr %22, align 8
  %24 = load ptr, ptr %23, align 8
  store ptr %24, ptr %20, align 8
  %25 = getelementptr inbounds i8, ptr %21, i64 8
  %26 = load ptr, ptr %25, align 8
  store ptr %26, ptr %22, align 8
  store ptr %23, ptr %25, align 8
  store ptr %21, ptr %23, align 8
  %27 = load i64, ptr %4, align 8
  %28 = add i64 %27, -1
  store i64 %28, ptr %4, align 8
  %29 = load ptr, ptr %10, align 8
  store ptr %29, ptr %22, align 8
  %30 = load ptr, ptr %29, align 8
  store ptr %30, ptr %20, align 8
  store ptr %20, ptr %29, align 8
  %31 = load ptr, ptr %20, align 8
  %32 = getelementptr inbounds i8, ptr %31, i64 8
  store ptr %20, ptr %32, align 8
  %33 = load i64, ptr %11, align 8
  %34 = add i64 %33, 1
  store i64 %34, ptr %11, align 8
  %35 = getelementptr inbounds i8, ptr %.011, i64 80
  %36 = getelementptr inbounds i8, ptr %.011, i64 112
  store i32 1, ptr %36, align 8
  tail call void @_ZN14PosixSemaphore6signalEj(ptr noundef nonnull align 8 dereferenceable(32) %35, i32 noundef 1) #14
  %37 = load i64, ptr %4, align 8
  %38 = icmp eq i64 %37, 0
  %39 = load ptr, ptr %3, align 8
  %40 = ptrtoint ptr %39 to i64
  %41 = add i64 %40, -64
  %.not15 = icmp eq i64 %41, 0
  %.not = select i1 %38, i1 true, i1 %.not15
  br i1 %.not, label %_ZN7XLockerI5XLockED2Ev.exit, label %12

_ZN7XLockerI5XLockED2Ev.exit:                     ; preds = %select.unfold, %1, %17
  %42 = tail call i32 @pthread_mutex_unlock(ptr noundef nonnull %0) #14
  ret void
}